target datalayout = "e-m:e-p270:32:32-p271:32:32-p272:64:64-i64:64-i128:128-f80:128-n8:16:32:64-S128"
target triple = "x86_64-pc-linux-gnu"

@_ZN19OpenColorIO_v2_5devL7EPOSINFE = internal constant <4 x float> splat (float 0x7FF0000000000000), align 16

; Function Attrs: alwaysinline mustprogress nounwind uwtable
define internal noundef <4 x float> @_ZL10_mm_xor_psDv4_fS_(<4 x float> noundef %0, <4 x float> noundef %1) #15 {
  %3 = alloca <4 x float>, align 16
  %4 = alloca <4 x float>, align 16
  store <4 x float> %0, ptr %3, align 16, !tbaa !105
  store <4 x float> %1, ptr %4, align 16, !tbaa !105
  %5 = load <4 x float>, ptr %3, align 16, !tbaa !105
  %6 = bitcast <4 x float> %5 to <4 x i32>
  %7 = load <4 x float>, ptr %4, align 16, !tbaa !105
  %8 = bitcast <4 x float> %7 to <4 x i32>
  %9 = xor <4 x i32> %6, %8
  %10 = bitcast <4 x i32> %9 to <4 x float>
  ret <4 x float> %10
}

; Function Attrs: inlinehint mustprogress uwtable
define linkonce_odr hidden noundef <4 x float> @_ZN19OpenColorIO_v2_5dev9sseSelectERKDv4_fS2_S2_(ptr noundef nonnull align 16 dereferenceable(16) %0, ptr noundef nonnull align 16 dereferenceable(16) %1, ptr noundef nonnull align 16 dereferenceable(16) %2) #14 comdat {
  %4 = alloca ptr, align 8
  %5 = alloca ptr, align 8
  %6 = alloca ptr, align 8
  store ptr %0, ptr %4, align 8, !tbaa !26
  store ptr %1, ptr %5, align 8, !tbaa !26
  store ptr %2, ptr %6, align 8, !tbaa !26
  %7 = load ptr, ptr %6, align 8, !tbaa !26
  %8 = load <4 x float>, ptr %7, align 16, !tbaa !105
  %9 = load ptr, ptr %4, align 8, !tbaa !26
  %10 = load <4 x float>, ptr %9, align 16, !tbaa !105
  %11 = load ptr, ptr %5, align 8, !tbaa !26
  %12 = load <4 x float>, ptr %11, align 16, !tbaa !105
  %13 = load ptr, ptr %6, align 8, !tbaa !26
  %14 = load <4 x float>, ptr %13, align 16, !tbaa !105
  %15 = call noundef <4 x float> @_ZL10_mm_xor_psDv4_fS_(<4 x float> noundef %12, <4 x float> noundef %14)
  %16 = call noundef <4 x float> @_ZL10_mm_and_psDv4_fS_(<4 x float> noundef %10, <4 x float> noundef %15)
  %17 = call noundef <4 x float> @_ZL10_mm_xor_psDv4_fS_(<4 x float> noundef %8, <4 x float> noundef %16)
  ret <4 x float> %17
}

; Function Attrs: alwaysinline mustprogress nounwind uwtable
define internal noundef <4 x float> @_ZL12_mm_cmpge_psDv4_fS_(<4 x float> noundef %0, <4 x float> noundef %1) #15 {
  %3 = alloca <4 x float>, align 16
  %4 = alloca <4 x float>, align 16
  store <4 x float> %0, ptr %3, align 16, !tbaa !105
  store <4 x float> %1, ptr %4, align 16, !tbaa !105
  %5 = load <4 x float>, ptr %4, align 16, !tbaa !105
  %6 = load <4 x float>, ptr %3, align 16, !tbaa !105
  %7 = fcmp ole <4 x float> %5, %6
  %8 = sext <4 x i1> %7 to <4 x i32>
  %9 = bitcast <4 x i32> %8 to <4 x float>
  ret <4 x float> %9
}

; Function Attrs: alwaysinline mustprogress nounwind uwtable
define internal noundef <4 x float> @_ZL12_mm_cmplt_psDv4_fS_(<4 x float> noundef %0, <4 x float> noundef %1) #15 {
  %3 = alloca <4 x float>, align 16
  %4 = alloca <4 x float>, align 16
  store <4 x float> %0, ptr %3, align 16, !tbaa !105
  store <4 x float> %1, ptr %4, align 16, !tbaa !105
  %5 = load <4 x float>, ptr %3, align 16, !tbaa !105
  %6 = load <4 x float>, ptr %4, align 16, !tbaa !105
  %7 = fcmp olt <4 x float> %5, %6
  %8 = sext <4 x i1> %7 to <4 x i32>
  %9 = bitcast <4 x i32> %8 to <4 x float>
  ret <4 x float> %9
}

; Function Attrs: alwaysinline mustprogress nounwind uwtable
define internal noundef <4 x float> @_ZL10_mm_sub_psDv4_fS_(<4 x float> noundef %0, <4 x float> noundef %1) #15 {
  %3 = alloca <4 x float>, align 16
  %4 = alloca <4 x float>, align 16
  store <4 x float> %0, ptr %3, align 16, !tbaa !105
  store <4 x float> %1, ptr %4, align 16, !tbaa !105
  %5 = load <4 x float>, ptr %3, align 16, !tbaa !105
  %6 = load <4 x float>, ptr %4, align 16, !tbaa !105
  %7 = fsub <4 x float> %5, %6
  ret <4 x float> %7
}

; Function Attrs: alwaysinline mustprogress nounwind uwtable
define internal noundef <2 x i64> @_ZL14_mm_slli_epi32Dv2_xi(<2 x i64> noundef %0, i32 noundef %1) #15 {
  %3 = alloca <2 x i64>, align 16
  %4 = alloca i32, align 4
  store <2 x i64> %0, ptr %3, align 16, !tbaa !105
  store i32 %1, ptr %4, align 4, !tbaa !34
  %5 = load <2 x i64>, ptr %3, align 16, !tbaa !105
  %6 = bitcast <2 x i64> %5 to <4 x i32>
  %7 = load i32, ptr %4, align 4, !tbaa !34
  %8 = call <4 x i32> @llvm.x86.sse2.pslli.d(<4 x i32> %6, i32 %7)
  %9 = bitcast <4 x i32> %8 to <2 x i64>
  ret <2 x i64> %9
}

; Function Attrs: alwaysinline mustprogress nounwind uwtable
define internal noundef <2 x i64> @_ZL13_mm_add_epi32Dv2_xS_(<2 x i64> noundef %0, <2 x i64> noundef %1) #15 {
  %3 = alloca <2 x i64>, align 16
  %4 = alloca <2 x i64>, align 16
  store <2 x i64> %0, ptr %3, align 16, !tbaa !105
  store <2 x i64> %1, ptr %4, align 16, !tbaa !105
  %5 = load <2 x i64>, ptr %3, align 16, !tbaa !105
  %6 = bitcast <2 x i64> %5 to <4 x i32>
  %7 = load <2 x i64>, ptr %4, align 16, !tbaa !105
  %8 = bitcast <2 x i64> %7 to <4 x i32>
  %9 = add <4 x i32> %6, %8
  %10 = bitcast <4 x i32> %9 to <2 x i64>
  ret <2 x i64> %10
}

; Function Attrs: alwaysinline mustprogress nounwind uwtable
define internal noundef <4 x float> @_ZL13_mm_cmpnle_psDv4_fS_(<4 x float> noundef %0, <4 x float> noundef %1) #15 {
  %3 = alloca <4 x float>, align 16
  %4 = alloca <4 x float>, align 16
  store <4 x float> %0, ptr %3, align 16, !tbaa !105
  store <4 x float> %1, ptr %4, align 16, !tbaa !105
  %5 = load <4 x float>, ptr %3, align 16, !tbaa !105
  %6 = load <4 x float>, ptr %4, align 16, !tbaa !105
  %7 = fcmp ugt <4 x float> %5, %6
  %8 = sext <4 x i1> %7 to <4 x i32>
  %9 = bitcast <4 x i32> %8 to <4 x float>
  ret <4 x float> %9
}

; Function Attrs: alwaysinline mustprogress nounwind uwtable
define internal noundef <2 x i64> @_ZL16_mm_cvttps_epi32Dv4_f(<4 x float> noundef %0) #15 {
  %2 = alloca <4 x float>, align 16
  store <4 x float> %0, ptr %2, align 16, !tbaa !105
  %3 = load <4 x float>, ptr %2, align 16, !tbaa !105
  %4 = call <4 x i32> @llvm.x86.sse2.cvttps2dq(<4 x float> %3)
  %5 = bitcast <4 x i32> %4 to <2 x i64>
  ret <2 x i64> %5
}

; Function Attrs: alwaysinline mustprogress nounwind uwtable
define internal noundef <4 x float> @_ZL15_mm_cvtepi32_psDv2_x(<2 x i64> noundef %0) #15 {
  %2 = alloca <2 x i64>, align 16
  store <2 x i64> %0, ptr %2, align 16, !tbaa !105
  %3 = load <2 x i64>, ptr %2, align 16, !tbaa !105
  %4 = bitcast <2 x i64> %3 to <4 x i32>
  %5 = sitofp <4 x i32> %4 to <4 x float>
  ret <4 x float> %5
}

; Function Attrs: alwaysinline mustprogress nounwind uwtable
define internal noundef <2 x i64> @_ZL13_mm_sub_epi32Dv2_xS_(<2 x i64> noundef %0, <2 x i64> noundef %1) #15 {
  %3 = alloca <2 x i64>, align 16
  %4 = alloca <2 x i64>, align 16
  store <2 x i64> %0, ptr %3, align 16, !tbaa !105
  store <2 x i64> %1, ptr %4, align 16, !tbaa !105
  %5 = load <2 x i64>, ptr %3, align 16, !tbaa !105
  %6 = bitcast <2 x i64> %5 to <4 x i32>
  %7 = load <2 x i64>, ptr %4, align 16, !tbaa !105
  %8 = bitcast <2 x i64> %7 to <4 x i32>
  %9 = sub <4 x i32> %6, %8
  %10 = bitcast <4 x i32> %9 to <2 x i64>
  ret <2 x i64> %10
}

; Function Attrs: alwaysinline mustprogress nounwind uwtable
define internal noundef <2 x i64> @_ZL14_mm_srli_epi32Dv2_xi(<2 x i64> noundef %0, i32 noundef %1) #15 {
  %3 = alloca <2 x i64>, align 16
  %4 = alloca i32, align 4
  store <2 x i64> %0, ptr %3, align 16, !tbaa !105
  store i32 %1, ptr %4, align 4, !tbaa !34
  %5 = load <2 x i64>, ptr %3, align 16, !tbaa !105
  %6 = bitcast <2 x i64> %5 to <4 x i32>
  %7 = load i32, ptr %4, align 4, !tbaa !34
  %8 = call <4 x i32> @llvm.x86.sse2.psrli.d(<4 x i32> %6, i32 %7)
  %9 = bitcast <4 x i32> %8 to <2 x i64>
  ret <2 x i64> %9
}

; Function Attrs: alwaysinline mustprogress nounwind uwtable
define internal noundef <2 x i64> @_ZL13_mm_and_si128Dv2_xS_(<2 x i64> noundef %0, <2 x i64> noundef %1) #15 {
  %3 = alloca <2 x i64>, align 16
  %4 = alloca <2 x i64>, align 16
  store <2 x i64> %0, ptr %3, align 16, !tbaa !105
  store <2 x i64> %1, ptr %4, align 16, !tbaa !105
  %5 = load <2 x i64>, ptr %3, align 16, !tbaa !105
  %6 = load <2 x i64>, ptr %4, align 16, !tbaa !105
  %7 = and <2 x i64> %5, %6
  ret <2 x i64> %7
}

; Function Attrs: alwaysinline mustprogress nounwind uwtable
define internal noundef <2 x i64> @_ZL16_mm_castps_si128Dv4_f(<4 x float> noundef %0) #15 {
  %2 = alloca <4 x float>, align 16
  store <4 x float> %0, ptr %2, align 16, !tbaa !105
  %3 = load <4 x float>, ptr %2, align 16, !tbaa !105
  %4 = bitcast <4 x float> %3 to <2 x i64>
  ret <2 x i64> %4
}

; Function Attrs: alwaysinline mustprogress nounwind uwtable
define internal noundef <4 x float> @_ZL10_mm_add_psDv4_fS_(<4 x float> noundef %0, <4 x float> noundef %1) #15 {
  %3 = alloca <4 x float>, align 16
  %4 = alloca <4 x float>, align 16
  store <4 x float> %0, ptr %3, align 16, !tbaa !105
  store <4 x float> %1, ptr %4, align 16, !tbaa !105
  %5 = load <4 x float>, ptr %3, align 16, !tbaa !105
  %6 = load <4 x float>, ptr %4, align 16, !tbaa !105
  %7 = fadd <4 x float> %5, %6
  ret <4 x float> %7
}

; Function Attrs: alwaysinline mustprogress nounwind uwtable
define internal noundef <4 x float> @_ZL9_mm_or_psDv4_fS_(<4 x float> noundef %0, <4 x float> noundef %1) #15 {
  %3 = alloca <4 x float>, align 16
  %4 = alloca <4 x float>, align 16
  store <4 x float> %0, ptr %3, align 16, !tbaa !105
  store <4 x float> %1, ptr %4, align 16, !tbaa !105
  %5 = load <4 x float>, ptr %3, align 16, !tbaa !105
  %6 = bitcast <4 x float> %5 to <4 x i32>
  %7 = load <4 x float>, ptr %4, align 16, !tbaa !105
  %8 = bitcast <4 x float> %7 to <4 x i32>
  %9 = or <4 x i32> %6, %8
  %10 = bitcast <4 x i32> %9 to <4 x float>
  ret <4 x float> %10
}

; Function Attrs: alwaysinline mustprogress nounwind uwtable
define internal noundef <4 x float> @_ZL13_mm_andnot_psDv4_fS_(<4 x float> noundef %0, <4 x float> noundef %1) #15 {
  %3 = alloca <4 x float>, align 16
  %4 = alloca <4 x float>, align 16
  store <4 x float> %0, ptr %3, align 16, !tbaa !105
  store <4 x float> %1, ptr %4, align 16, !tbaa !105
  %5 = load <4 x float>, ptr %3, align 16, !tbaa !105
  %6 = bitcast <4 x float> %5 to <4 x i32>
  %7 = xor <4 x i32> %6, splat (i32 -1)
  %8 = load <4 x float>, ptr %4, align 16, !tbaa !105
  %9 = bitcast <4 x float> %8 to <4 x i32>
  %10 = and <4 x i32> %7, %9
  %11 = bitcast <4 x i32> %10 to <4 x float>
  ret <4 x float> %11
}

; Function Attrs: alwaysinline mustprogress nounwind uwtable
define internal noundef <4 x float> @_ZL16_mm_castsi128_psDv2_x(<2 x i64> noundef %0) #15 {
  %2 = alloca <2 x i64>, align 16
  store <2 x i64> %0, ptr %2, align 16, !tbaa !105
  %3 = load <2 x i64>, ptr %2, align 16, !tbaa !105
  %4 = bitcast <2 x i64> %3 to <4 x float>
  ret <4 x float> %4
}

; Function Attrs: alwaysinline mustprogress nounwind uwtable
define internal noundef <4 x float> @_ZL10_mm_and_psDv4_fS_(<4 x float> noundef %0, <4 x float> noundef %1) #15 {
  %3 = alloca <4 x float>, align 16
  %4 = alloca <4 x float>, align 16
  store <4 x float> %0, ptr %3, align 16, !tbaa !105
  store <4 x float> %1, ptr %4, align 16, !tbaa !105
  %5 = load <4 x float>, ptr %3, align 16, !tbaa !105
  %6 = bitcast <4 x float> %5 to <4 x i32>
  %7 = load <4 x float>, ptr %4, align 16, !tbaa !105
  %8 = bitcast <4 x float> %7 to <4 x i32>
  %9 = and <4 x i32> %6, %8
  %10 = bitcast <4 x i32> %9 to <4 x float>
  ret <4 x float> %10
}

; Function Attrs: alwaysinline mustprogress nounwind uwtable
define internal noundef <4 x float> @_ZL12_mm_cmpgt_psDv4_fS_(<4 x float> noundef %0, <4 x float> noundef %1) #15 {
  %3 = alloca <4 x float>, align 16
  %4 = alloca <4 x float>, align 16
  store <4 x float> %0, ptr %3, align 16, !tbaa !105
  store <4 x float> %1, ptr %4, align 16, !tbaa !105
  %5 = load <4 x float>, ptr %4, align 16, !tbaa !105
  %6 = load <4 x float>, ptr %3, align 16, !tbaa !105
  %7 = fcmp olt <4 x float> %5, %6
  %8 = sext <4 x i1> %7 to <4 x i32>
  %9 = bitcast <4 x i32> %8 to <4 x float>
  ret <4 x float> %9
}

; Function Attrs: inlinehint mustprogress uwtable
define linkonce_odr hidden noundef <4 x float> @_ZN19OpenColorIO_v2_5dev7sseExp2EDv4_f(<4 x float> noundef %0) #14 comdat {
  %2 = alloca <4 x float>, align 16
  %3 = alloca <2 x i64>, align 16
  %4 = alloca <4 x float>, align 16
  %5 = alloca <4 x float>, align 16
  %6 = alloca <4 x float>, align 16
  %7 = alloca <4 x float>, align 16
  %8 = alloca <4 x float>, align 16
  %9 = alloca <4 x float>, align 16
  store <4 x float> %0, ptr %2, align 16, !tbaa !105
  call void @llvm.lifetime.start.p0(i64 16, ptr %3) #3
  %10 = load <4 x float>, ptr %2, align 16, !tbaa !105
  %11 = call noundef <2 x i64> @_ZL16_mm_cvttps_epi32Dv4_f(<4 x float> noundef %10)
  %12 = load <4 x float>, ptr %2, align 16, !tbaa !105
  %13 = call noundef <4 x float> @_ZL13_mm_cmpnle_psDv4_fS_(<4 x float> noundef zeroinitializer, <4 x float> noundef %12)
  %14 = call noundef <2 x i64> @_ZL16_mm_castps_si128Dv4_f(<4 x float> noundef %13)
  %15 = call noundef <2 x i64> @_ZL13_mm_add_epi32Dv2_xS_(<2 x i64> noundef %11, <2 x i64> noundef %14)
  store <2 x i64> %15, ptr %3, align 16, !tbaa !105
  call void @llvm.lifetime.start.p0(i64 16, ptr %4) #3
  %16 = load <2 x i64>, ptr %3, align 16, !tbaa !105
  %17 = call noundef <2 x i64> @_ZL13_mm_add_epi32Dv2_xS_(<2 x i64> noundef %16, <2 x i64> noundef splat (i64 545460846719))
  %18 = call noundef <2 x i64> @_ZL14_mm_slli_epi32Dv2_xi(<2 x i64> noundef %17, i32 noundef 23)
  %19 = call noundef <4 x float> @_ZL16_mm_castsi128_psDv2_x(<2 x i64> noundef %18)
  store <4 x float> %19, ptr %4, align 16, !tbaa !105
  call void @llvm.lifetime.start.p0(i64 16, ptr %5) #3
  %20 = load <2 x i64>, ptr %3, align 16, !tbaa !105
  %21 = call noundef <4 x float> @_ZL15_mm_cvtepi32_psDv2_x(<2 x i64> noundef %20)
  store <4 x float> %21, ptr %5, align 16, !tbaa !105
  call void @llvm.lifetime.start.p0(i64 16, ptr %6) #3
  %22 = load <4 x float>, ptr %2, align 16, !tbaa !105
  %23 = load <4 x float>, ptr %5, align 16, !tbaa !105
  %24 = call noundef <4 x float> @_ZL10_mm_sub_psDv4_fS_(<4 x float> noundef %22, <4 x float> noundef %23)
  store <4 x float> %24, ptr %6, align 16, !tbaa !105
  call void @llvm.lifetime.start.p0(i64 16, ptr %7) #3
  %25 = load <4 x float>, ptr %6, align 16, !tbaa !105
  %26 = call noundef <4 x float> @_ZL10_mm_mul_psDv4_fS_(<4 x float> noundef splat (float 0x3F8BB7CD40000000), <4 x float> noundef %25)
  %27 = call noundef <4 x float> @_ZL10_mm_add_psDv4_fS_(<4 x float> noundef %26, <4 x float> noundef splat (float 0x3FAAA13F00000000))
  %28 = load <4 x float>, ptr %6, align 16, !tbaa !105
  %29 = call noundef <4 x float> @_ZL10_mm_mul_psDv4_fS_(<4 x float> noundef %27, <4 x float> noundef %28)
  %30 = call noundef <4 x float> @_ZL10_mm_add_psDv4_fS_(<4 x float> noundef %29, <4 x float> noundef splat (float 0x3FCEE798A0000000))
  %31 = load <4 x float>, ptr %6, align 16, !tbaa !105
  %32 = call noundef <4 x float> @_ZL10_mm_mul_psDv4_fS_(<4 x float> noundef %30, <4 x float> noundef %31)
  %33 = call noundef <4 x float> @_ZL10_mm_add_psDv4_fS_(<4 x float> noundef %32, <4 x float> noundef splat (float 0x3FE62D1660000000))
  %34 = load <4 x float>, ptr %6, align 16, !tbaa !105
  %35 = call noundef <4 x float> @_ZL10_mm_mul_psDv4_fS_(<4 x float> noundef %33, <4 x float> noundef %34)
  %36 = call noundef <4 x float> @_ZL10_mm_add_psDv4_fS_(<4 x float> noundef %35, <4 x float> noundef splat (float 0x3FF00002C0000000))
  store <4 x float> %36, ptr %7, align 16, !tbaa !105
  call void @llvm.lifetime.start.p0(i64 16, ptr %8) #3
  %37 = load <4 x float>, ptr %4, align 16, !tbaa !105
  %38 = load <4 x float>, ptr %7, align 16, !tbaa !105
  %39 = call noundef <4 x float> @_ZL10_mm_mul_psDv4_fS_(<4 x float> noundef %37, <4 x float> noundef %38)
  store <4 x float> %39, ptr %8, align 16, !tbaa !105
  %40 = load <4 x float>, ptr %2, align 16, !tbaa !105
  %41 = call noundef <4 x float> @_ZL12_mm_cmplt_psDv4_fS_(<4 x float> noundef %40, <4 x float> noundef splat (float -1.260000e+02))
  %42 = load <4 x float>, ptr %8, align 16, !tbaa !105
  %43 = call noundef <4 x float> @_ZL13_mm_andnot_psDv4_fS_(<4 x float> noundef %41, <4 x float> noundef %42)
  store <4 x float> %43, ptr %8, align 16, !tbaa !105
  call void @llvm.lifetime.start.p0(i64 16, ptr %9) #3
  %44 = load <4 x float>, ptr %2, align 16, !tbaa !105
  %45 = call noundef <4 x float> @_ZL12_mm_cmpge_psDv4_fS_(<4 x float> noundef %44, <4 x float> noundef splat (float 1.280000e+02))
  store <4 x float> %45, ptr %9, align 16, !tbaa !105
  %46 = call noundef <4 x float> @_ZN19OpenColorIO_v2_5dev9sseSelectERKDv4_fS2_S2_(ptr noundef nonnull align 16 dereferenceable(16) %9, ptr noundef nonnull align 16 dereferenceable(16) @_ZN19OpenColorIO_v2_5devL7EPOSINFE, ptr noundef nonnull align 16 dereferenceable(16) %8)
  store <4 x float> %46, ptr %8, align 16, !tbaa !105
  call void @llvm.lifetime.end.p0(i64 16, ptr %9) #3
  %47 = load <4 x float>, ptr %8, align 16, !tbaa !105
  call void @llvm.lifetime.end.p0(i64 16, ptr %8) #3
  call void @llvm.lifetime.end.p0(i64 16, ptr %7) #3
  call void @llvm.lifetime.end.p0(i64 16, ptr %6) #3
  call void @llvm.lifetime.end.p0(i64 16, ptr %5) #3
  call void @llvm.lifetime.end.p0(i64 16, ptr %4) #3
  call void @llvm.lifetime.end.p0(i64 16, ptr %3) #3
  ret <4 x float> %47
}

; Function Attrs: alwaysinline mustprogress nounwind uwtable
define internal noundef <4 x float> @_ZL10_mm_mul_psDv4_fS_(<4 x float> noundef %0, <4 x float> noundef %1) #15 {
  %3 = alloca <4 x float>, align 16
  %4 = alloca <4 x float>, align 16
  store <4 x float> %0, ptr %3, align 16, !tbaa !105
  store <4 x float> %1, ptr %4, align 16, !tbaa !105
  %5 = load <4 x float>, ptr %3, align 16, !tbaa !105
  %6 = load <4 x float>, ptr %4, align 16, !tbaa !105
  %7 = fmul <4 x float> %5, %6
  ret <4 x float> %7
}

; Function Attrs: inlinehint mustprogress uwtable
define linkonce_odr hidden noundef <4 x float> @_ZN19OpenColorIO_v2_5dev7sseLog2EDv4_f(<4 x float> noundef %0) #14 comdat {
  %2 = alloca <4 x float>, align 16
  %3 = alloca <4 x float>, align 16
  %4 = alloca <4 x float>, align 16
  %5 = alloca <2 x i64>, align 16
  store <4 x float> %0, ptr %2, align 16, !tbaa !105
  call void @llvm.lifetime.start.p0(i64 16, ptr %3) #3
  %6 = call noundef <4 x float> @_ZL16_mm_castsi128_psDv2_x(<2 x i64> noundef splat (i64 9187343241974906880))
  %7 = load <4 x float>, ptr %2, align 16, !tbaa !105
  %8 = call noundef <4 x float> @_ZL13_mm_andnot_psDv4_fS_(<4 x float> noundef %6, <4 x float> noundef %7)
  %9 = call noundef <4 x float> @_ZL9_mm_or_psDv4_fS_(<4 x float> noundef %8, <4 x float> noundef splat (float 1.000000e+00))
  store <4 x float> %9, ptr %3, align 16, !tbaa !105
  call void @llvm.lifetime.start.p0(i64 16, ptr %4) #3
  %10 = load <4 x float>, ptr %3, align 16, !tbaa !105
  %11 = call noundef <4 x float> @_ZL10_mm_mul_psDv4_fS_(<4 x float> noundef splat (float 0x3FA6F9ACA0000000), <4 x float> noundef %10)
  %12 = call noundef <4 x float> @_ZL10_mm_add_psDv4_fS_(<4 x float> noundef %11, <4 x float> noundef splat (float 0xBFDAA8FAE0000000))
  %13 = load <4 x float>, ptr %3, align 16, !tbaa !105
  %14 = call noundef <4 x float> @_ZL10_mm_mul_psDv4_fS_(<4 x float> noundef %12, <4 x float> noundef %13)
  %15 = call noundef <4 x float> @_ZL10_mm_add_psDv4_fS_(<4 x float> noundef %14, <4 x float> noundef splat (float 0x3FFA192F80000000))
  %16 = load <4 x float>, ptr %3, align 16, !tbaa !105
  %17 = call noundef <4 x float> @_ZL10_mm_mul_psDv4_fS_(<4 x float> noundef %15, <4 x float> noundef %16)
  %18 = call noundef <4 x float> @_ZL10_mm_add_psDv4_fS_(<4 x float> noundef %17, <4 x float> noundef splat (float 0xC00C680620000000))
  %19 = load <4 x float>, ptr %3, align 16, !tbaa !105
  %20 = call noundef <4 x float> @_ZL10_mm_mul_psDv4_fS_(<4 x float> noundef %18, <4 x float> noundef %19)
  %21 = call noundef <4 x float> @_ZL10_mm_add_psDv4_fS_(<4 x float> noundef %20, <4 x float> noundef splat (float 0x40145DE980000000))
  %22 = load <4 x float>, ptr %3, align 16, !tbaa !105
  %23 = call noundef <4 x float> @_ZL10_mm_mul_psDv4_fS_(<4 x float> noundef %21, <4 x float> noundef %22)
  %24 = call noundef <4 x float> @_ZL10_mm_add_psDv4_fS_(<4 x float> noundef %23, <4 x float> noundef splat (float 0xC006672540000000))
  store <4 x float> %24, ptr %4, align 16, !tbaa !105
  call void @llvm.lifetime.start.p0(i64 16, ptr %5) #3
  %25 = load <4 x float>, ptr %2, align 16, !tbaa !105
  %26 = call noundef <2 x i64> @_ZL16_mm_castps_si128Dv4_f(<4 x float> noundef %25)
  %27 = call noundef <2 x i64> @_ZL13_mm_and_si128Dv2_xS_(<2 x i64> noundef %26, <2 x i64> noundef splat (i64 9187343241974906880))
  %28 = call noundef <2 x i64> @_ZL14_mm_srli_epi32Dv2_xi(<2 x i64> noundef %27, i32 noundef 23)
  %29 = call noundef <2 x i64> @_ZL13_mm_sub_epi32Dv2_xS_(<2 x i64> noundef %28, <2 x i64> noundef splat (i64 545460846719))
  store <2 x i64> %29, ptr %5, align 16, !tbaa !105
  %30 = load <4 x float>, ptr %4, align 16, !tbaa !105
  %31 = load <2 x i64>, ptr %5, align 16, !tbaa !105
  %32 = call noundef <4 x float> @_ZL15_mm_cvtepi32_psDv2_x(<2 x i64> noundef %31)
  %33 = call noundef <4 x float> @_ZL10_mm_add_psDv4_fS_(<4 x float> noundef %30, <4 x float> noundef %32)
  store <4 x float> %33, ptr %4, align 16, !tbaa !105
  %34 = load <4 x float>, ptr %4, align 16, !tbaa !105
  call void @llvm.lifetime.end.p0(i64 16, ptr %5) #3
  call void @llvm.lifetime.end.p0(i64 16, ptr %4) #3
  call void @llvm.lifetime.end.p0(i64 16, ptr %3) #3
  ret <4 x float> %34
}

; Function Attrs: inlinehint mustprogress uwtable
define linkonce_odr hidden noundef <4 x float> @_ZN19OpenColorIO_v2_5dev8ssePowerEDv4_fS0_(<4 x float> noundef %0, <4 x float> noundef %1) #14 comdat {
  %3 = alloca <4 x float>, align 16
  %4 = alloca <4 x float>, align 16
  %5 = alloca <4 x float>, align 16
  store <4 x float> %0, ptr %3, align 16, !tbaa !105
  store <4 x float> %1, ptr %4, align 16, !tbaa !105
  call void @llvm.lifetime.start.p0(i64 16, ptr %5) #3
  %6 = load <4 x float>, ptr %3, align 16, !tbaa !105
  %7 = call noundef <4 x float> @_ZN19OpenColorIO_v2_5dev7sseLog2EDv4_f(<4 x float> noundef %6)
  store <4 x float> %7, ptr %5, align 16, !tbaa !105
  %8 = load <4 x float>, ptr %4, align 16, !tbaa !105
  %9 = load <4 x float>, ptr %5, align 16, !tbaa !105
  %10 = call noundef <4 x float> @_ZL10_mm_mul_psDv4_fS_(<4 x float> noundef %8, <4 x float> noundef %9)
  store <4 x float> %10, ptr %5, align 16, !tbaa !105
  %11 = load <4 x float>, ptr %5, align 16, !tbaa !105
  %12 = call noundef <4 x float> @_ZN19OpenColorIO_v2_5dev7sseExp2EDv4_f(<4 x float> noundef %11)
  store <4 x float> %12, ptr %5, align 16, !tbaa !105
  %13 = load <4 x float>, ptr %5, align 16, !tbaa !105
  %14 = load <4 x float>, ptr %3, align 16, !tbaa !105
  %15 = call noundef <4 x float> @_ZL12_mm_cmpgt_psDv4_fS_(<4 x float> noundef %14, <4 x float> noundef zeroinitializer)
  %16 = call noundef <4 x float> @_ZL10_mm_and_psDv4_fS_(<4 x float> noundef %13, <4 x float> noundef %15)
  store <4 x float> %16, ptr %5, align 16, !tbaa !105
  %17 = load <4 x float>, ptr %5, align 16, !tbaa !105
  call void @llvm.lifetime.end.p0(i64 16, ptr %5) #3
  ret <4 x float> %17
}

; Function Attrs: mustprogress uwtable
define hidden noundef <4 x float> @_ZN19OpenColorIO_v2_5dev22Renderer_PQ_TO_LIN_SSEILb1EE7myPowerEDv4_fS2_(<4 x float> noundef %0, <4 x float> noundef %1) #13 align 2 {
  %3 = alloca <4 x float>, align 16
  %4 = alloca <4 x float>, align 16
  store <4 x float> %0, ptr %3, align 16, !tbaa !105
  store <4 x float> %1, ptr %4, align 16, !tbaa !105
  %5 = load <4 x float>, ptr %3, align 16, !tbaa !105
  %6 = load <4 x float>, ptr %4, align 16, !tbaa !105
  %7 = call noundef <4 x float> @_ZN19OpenColorIO_v2_5dev8ssePowerEDv4_fS0_(<4 x float> noundef %5, <4 x float> noundef %6)
  ret <4 x float> %7
}