; Function Attrs: mustprogress nofree norecurse nosync nounwind willreturn memory(none) uwtable
define hidden noundef <4 x float> @_ZN19OpenColorIO_v2_5dev22Renderer_PQ_TO_LIN_SSEILb1EE7myPowerEDv4_fS2_(<4 x float> noundef %0, <4 x float> noundef %1) local_unnamed_addr #14 align 2 {
  %3 = bitcast <4 x float> %0 to <4 x i32>
  %4 = and <4 x i32> %3, splat (i32 -2139095041)
  %5 = or disjoint <4 x i32> %4, splat (i32 1065353216)
  %6 = bitcast <4 x i32> %5 to <4 x float>
  %7 = fmul <4 x float> %6, splat (float 0x3FA6F9ACA0000000)
  %8 = fadd <4 x float> %7, splat (float 0xBFDAA8FAE0000000)
  %9 = fmul <4 x float> %8, %6
  %10 = fadd <4 x float> %9, splat (float 0x3FFA192F80000000)
  %11 = fmul <4 x float> %10, %6
  %12 = fadd <4 x float> %11, splat (float 0xC00C680620000000)
  %13 = fmul <4 x float> %12, %6
  %14 = fadd <4 x float> %13, splat (float 0x40145DE980000000)
  %15 = fmul <4 x float> %14, %6
  %16 = fadd <4 x float> %15, splat (float 0xC006672540000000)
  %17 = lshr <4 x i32> %3, splat (i32 23)
  %18 = and <4 x i32> %17, splat (i32 255)
  %19 = add nsw <4 x i32> %18, splat (i32 -127)
  %20 = sitofp <4 x i32> %19 to <4 x float>
  %21 = fadd <4 x float> %16, %20
  %22 = fmul <4 x float> %1, %21
  %23 = tail call <4 x i32> @llvm.x86.sse2.cvttps2dq(<4 x float> %22)
  %24 = fcmp ult <4 x float> %22, zeroinitializer
  %25 = sext <4 x i1> %24 to <4 x i32>
  %26 = add <4 x i32> %23, %25
  %27 = shl <4 x i32> %26, splat (i32 23)
  %28 = add <4 x i32> %27, splat (i32 1065353216)
  %29 = bitcast <4 x i32> %28 to <4 x float>
  %30 = sitofp <4 x i32> %26 to <4 x float>
  %31 = fsub <4 x float> %22, %30
  %32 = fmul <4 x float> %31, splat (float 0x3F8BB7CD40000000)
  %33 = fadd <4 x float> %32, splat (float 0x3FAAA13F00000000)
  %34 = fmul <4 x float> %31, %33
  %35 = fadd <4 x float> %34, splat (float 0x3FCEE798A0000000)
  %36 = fmul <4 x float> %31, %35
  %37 = fadd <4 x float> %36, splat (float 0x3FE62D1660000000)
  %38 = fmul <4 x float> %31, %37
  %39 = fadd <4 x float> %38, splat (float 0x3FF00002C0000000)
  %40 = fmul <4 x float> %39, %29
  %41 = fcmp uge <4 x float> %22, splat (float -1.260000e+02)
  %42 = fcmp oge <4 x float> %22, splat (float 1.280000e+02)
  %43 = select <4 x i1> %41, <4 x float> %40, <4 x float> zeroinitializer
  %44 = select <4 x i1> %42, <4 x float> splat (float 0x7FF0000000000000), <4 x float> %43
  %45 = fcmp ogt <4 x float> %0, zeroinitializer
  %46 = select <4 x i1> %45, <4 x float> %44, <4 x float> zeroinitializer
  ret <4 x float> %46
}